; Function Attrs: nounwind uwtable
define ptr @l_Std_Tactic_BVDecide_LRAT_Internal_DefaultFormula_delete(ptr noundef readnone captures(none) %0, ptr noundef %1, ptr noundef readonly captures(none) %2) local_unnamed_addr #1 {
lean_nat_lt.exit:
  %3 = getelementptr i8, ptr %2, i64 8
  %.val = load i64, ptr %3, align 8, !tbaa !12
  %.mask = and i64 %.val, 9223372036854775807
  %.not = icmp eq i64 %.mask, 0
  br i1 %.not, label %lean_dec.exit20, label %.lr.ph.i

.lr.ph.i:                                         ; preds = %lean_nat_lt.exit
  %4 = getelementptr inbounds nuw i8, ptr %2, i64 24
  br label %5

5:                                                ; preds = %25, %.lr.ph.i
  %.01630.i = phi i64 [ 0, %.lr.ph.i ], [ %27, %25 ]
  %.01829.i = phi ptr [ %1, %.lr.ph.i ], [ %26, %25 ]
  %6 = getelementptr inbounds nuw [0 x ptr], ptr %4, i64 0, i64 %.01630.i
  %7 = load ptr, ptr %6, align 8, !tbaa !9
  %8 = ptrtoint ptr %7 to i64
  %9 = and i64 %8, 1
  %.not.i20.i = icmp eq i64 %9, 0
  br i1 %.not.i20.i, label %10, label %lean_array_uget.exit.i

10:                                               ; preds = %5
  %.val.i.i.i = load i32, ptr %7, align 4, !tbaa !4
  %11 = icmp sgt i32 %.val.i.i.i, 0
  br i1 %11, label %12, label %14, !prof !11

12:                                               ; preds = %10
  %13 = add nuw i32 %.val.i.i.i, 1
  store i32 %13, ptr %7, align 4, !tbaa !4
  br label %17

14:                                               ; preds = %10
  %.not.i.i.i = icmp eq i32 %.val.i.i.i, 0
  br i1 %.not.i.i.i, label %17, label %15

15:                                               ; preds = %14
  tail call void @lean_inc_ref_cold(ptr noundef nonnull %7) #5
  br label %17

lean_array_uget.exit.i:                           ; preds = %5
  %16 = tail call ptr @l_Std_Tactic_BVDecide_LRAT_Internal_DefaultFormula_deleteOne(ptr readnone poison, ptr noundef %.01829.i, ptr noundef %7)
  br label %25

17:                                               ; preds = %15, %14, %12
  %18 = tail call ptr @l_Std_Tactic_BVDecide_LRAT_Internal_DefaultFormula_deleteOne(ptr readnone poison, ptr noundef %.01829.i, ptr noundef nonnull %7)
  %19 = load i32, ptr %7, align 4, !tbaa !4
  %20 = icmp sgt i32 %19, 1
  br i1 %20, label %21, label %23, !prof !11

21:                                               ; preds = %17
  %22 = add nsw i32 %19, -1
  store i32 %22, ptr %7, align 4, !tbaa !4
  br label %25

23:                                               ; preds = %17
  %.not.i.i = icmp eq i32 %19, 0
  br i1 %.not.i.i, label %25, label %24

24:                                               ; preds = %23
  tail call void @lean_dec_ref_cold(ptr noundef nonnull %7) #5
  br label %25

25:                                               ; preds = %24, %23, %21, %lean_array_uget.exit.i
  %26 = phi ptr [ %16, %lean_array_uget.exit.i ], [ %18, %21 ], [ %18, %23 ], [ %18, %24 ]
  %27 = add nuw nsw i64 %.01630.i, 1
  %.not.i28 = icmp eq i64 %27, %.mask
  br i1 %.not.i28, label %lean_dec.exit20, label %5

lean_dec.exit20:                                  ; preds = %25, %lean_nat_lt.exit
  %.0 = phi ptr [ %1, %lean_nat_lt.exit ], [ %26, %25 ]
  ret ptr %.0
}